; Function Attrs: mustprogress uwtable
define hidden void @_ZN7datalog12rule_manager10ensure_appEP4expr(ptr noalias nocapture writeonly sret(%class.obj_ref) align 8 %agg.result, ptr nocapture noundef nonnull readonly align 8 dereferenceable(1368) %this, ptr noundef %e) local_unnamed_addr #3 align 2 {
entry:
  %m_kind.i.i = getelementptr inbounds i8, ptr %e, i64 4
  %bf.load.i.i = load i32, ptr %m_kind.i.i, align 4
  %bf.clear.i.i = and i32 %bf.load.i.i, 65535
  %cmp.i = icmp eq i32 %bf.clear.i.i, 0
  %0 = load ptr, ptr %this, align 8
  br i1 %cmp.i, label %_ZN7obj_refI3app11ast_managerEC2EPS0_RS1_.exit, label %if.else

_ZN7obj_refI3app11ast_managerEC2EPS0_RS1_.exit:   ; preds = %entry
  store ptr %e, ptr %agg.result, align 8
  %m_manager.i = getelementptr inbounds i8, ptr %agg.result, i64 8
  store ptr %0, ptr %m_manager.i, align 8
  br label %return.sink.split

if.else:                                          ; preds = %entry
  %m_true.i = getelementptr inbounds i8, ptr %0, i64 856
  %1 = load ptr, ptr %m_true.i, align 8
  %call2.i = tail call noundef ptr @_ZN11ast_manager6mk_appEiiP4exprS1_(ptr noundef nonnull align 8 dereferenceable(976) %0, i32 noundef 0, i32 noundef 2, ptr noundef nonnull %e, ptr noundef %1)
  %2 = load ptr, ptr %this, align 8
  store ptr %call2.i, ptr %agg.result, align 8
  %m_manager.i3 = getelementptr inbounds i8, ptr %agg.result, i64 8
  store ptr %2, ptr %m_manager.i3, align 8
  %tobool.not.i.i4 = icmp eq ptr %call2.i, null
  br i1 %tobool.not.i.i4, label %return, label %return.sink.split

return.sink.split:                                ; preds = %if.else, %_ZN7obj_refI3app11ast_managerEC2EPS0_RS1_.exit
  %e.sink = phi ptr [ %e, %_ZN7obj_refI3app11ast_managerEC2EPS0_RS1_.exit ], [ %call2.i, %if.else ]
  %m_ref_count.i.i.i.i = getelementptr inbounds i8, ptr %e.sink, i64 8
  %3 = load i32, ptr %m_ref_count.i.i.i.i, align 4
  %inc.i.i.i.i7 = add i32 %3, 1
  store i32 %inc.i.i.i.i7, ptr %m_ref_count.i.i.i.i, align 4
  br label %return

return:                                           ; preds = %return.sink.split, %if.else
  ret void
}